; Function Attrs: null_pointer_is_valid sspstrong uwtable
define internal fastcc noundef i32 @dissect_vuze_dht_address(ptr noundef %0, ptr noundef readonly captures(none) %1, ptr noundef %2, i32 noundef %3, ptr noundef %4) unnamed_addr #0 {
  %6 = alloca %struct._address, align 8
  call void @llvm.lifetime.start.p0(i64 24, ptr nonnull %6) #4
  %7 = tail call zeroext i8 @tvb_get_uint8(ptr noundef %0, i32 noundef %3)
  %8 = load i32, ptr @hf_vuze_dht_address, align 4
  %9 = zext i8 %7 to i32
  %10 = add nuw nsw i32 %9, 3
  %11 = tail call ptr (ptr, i32, ptr, i32, i32, ptr, ...) @proto_tree_add_none_format(ptr noundef %2, i32 noundef %8, ptr noundef %0, i32 noundef %3, i32 noundef %10, ptr noundef nonnull @.str.180, ptr noundef %4)
  %12 = load i32, ptr @ett_vuze_dht_address, align 4
  %13 = tail call ptr @proto_item_add_subtree(ptr noundef %11, i32 noundef %12)
  %14 = load i32, ptr @hf_vuze_dht_address_len, align 4
  %15 = tail call ptr @proto_tree_add_item(ptr noundef %13, i32 noundef %14, ptr noundef %0, i32 noundef %3, i32 noundef 1, i32 noundef 0)
  %16 = add i32 %3, 1
  switch i8 %7, label %31 [
    i8 4, label %17
    i8 16, label %24
  ]

17:                                               ; preds = %5
  %18 = load i32, ptr @hf_vuze_dht_address_v4, align 4
  %19 = tail call ptr @proto_tree_add_item(ptr noundef %13, i32 noundef %18, ptr noundef %0, i32 noundef %16, i32 noundef 4, i32 noundef 0)
  %20 = tail call ptr @tvb_get_ptr(ptr noundef %0, i32 noundef %16, i32 noundef 4)
  store i32 2, ptr %6, align 8
  %21 = getelementptr inbounds nuw i8, ptr %6, i64 4
  store i32 4, ptr %21, align 4
  %22 = getelementptr inbounds nuw i8, ptr %6, i64 8
  store ptr %20, ptr %22, align 8
  %23 = getelementptr inbounds nuw i8, ptr %6, i64 16
  store ptr null, ptr %23, align 8
  br label %32

24:                                               ; preds = %5
  %25 = load i32, ptr @hf_vuze_dht_address_v6, align 4
  %26 = tail call ptr @proto_tree_add_item(ptr noundef %13, i32 noundef %25, ptr noundef %0, i32 noundef %16, i32 noundef 16, i32 noundef 0)
  %27 = tail call ptr @tvb_get_ptr(ptr noundef %0, i32 noundef %16, i32 noundef 16)
  store i32 3, ptr %6, align 8
  %28 = getelementptr inbounds nuw i8, ptr %6, i64 4
  store i32 16, ptr %28, align 4
  %29 = getelementptr inbounds nuw i8, ptr %6, i64 8
  store ptr %27, ptr %29, align 8
  %30 = getelementptr inbounds nuw i8, ptr %6, i64 16
  store ptr null, ptr %30, align 8
  br label %32

31:                                               ; preds = %5
  call void @llvm.memset.p0.i64(ptr noundef nonnull align 8 dereferenceable(24) %6, i8 0, i64 24, i1 false)
  br label %32

32:                                               ; preds = %31, %24, %17
  %33 = add i32 %16, %9
  %34 = load i32, ptr @hf_vuze_dht_address_port, align 4
  %35 = tail call ptr @proto_tree_add_item(ptr noundef %13, i32 noundef %34, ptr noundef %0, i32 noundef %33, i32 noundef 2, i32 noundef 0)
  %36 = getelementptr inbounds nuw i8, ptr %1, i64 408
  %37 = load ptr, ptr %36, align 8
  %38 = call ptr @address_to_str(ptr noundef %37, ptr noundef nonnull %6)
  %39 = call zeroext i16 @tvb_get_ntohs(ptr noundef %0, i32 noundef %33)
  %40 = zext i16 %39 to i32
  call void (ptr, ptr, ...) @proto_item_append_text(ptr noundef %11, ptr noundef nonnull @.str.181, ptr noundef %38, i32 noundef %40)
  %41 = add i32 %33, 2
  call void @llvm.lifetime.end.p0(i64 24, ptr nonnull %6) #4
  ret i32 %41
}